target datalayout = "e-m:e-p270:32:32-p271:32:32-p272:64:64-i64:64-i128:128-f80:128-n8:16:32:64-S128"
target triple = "x86_64-pc-linux-gnu"

%struct.het_job_resp_struct = type { ptr, ptr, i32 }

; Function Attrs: nounwind uwtable
define internal void @_het_job_struct_del(ptr noundef %0) #0 {
  %2 = alloca ptr, align 8
  %3 = alloca ptr, align 8
  store ptr %0, ptr %2, align 8
  call void @llvm.lifetime.start.p0(i64 8, ptr %3) #10
  %4 = load ptr, ptr %2, align 8
  store ptr %4, ptr %3, align 8
  %5 = load ptr, ptr %3, align 8
  %6 = getelementptr inbounds nuw %struct.het_job_resp_struct, ptr %5, i32 0, i32 0
  call void @slurm_xfree(ptr noundef %6)
  %7 = load ptr, ptr %3, align 8
  %8 = getelementptr inbounds nuw %struct.het_job_resp_struct, ptr %7, i32 0, i32 1
  %9 = load ptr, ptr %8, align 8
  %10 = icmp ne ptr %9, null
  br i1 %10, label %11, label %15

11:                                               ; preds = %1
  %12 = load ptr, ptr %3, align 8
  %13 = getelementptr inbounds nuw %struct.het_job_resp_struct, ptr %12, i32 0, i32 1
  %14 = load ptr, ptr %13, align 8
  call void @hostlist_destroy(ptr noundef %14)
  br label %15

15:                                               ; preds = %11, %1
  call void @slurm_xfree(ptr noundef %3)
  call void @llvm.lifetime.end.p0(i64 8, ptr %3) #10
  ret void
}