; Function Attrs: nounwind uwtable
define internal void @_het_job_struct_del(ptr noundef %0) #0 {
  %2 = alloca ptr, align 8
  call void @llvm.lifetime.start.p0(i64 8, ptr nonnull %2) #15
  store ptr %0, ptr %2, align 8
  tail call void @slurm_xfree(ptr noundef %0) #15
  %3 = getelementptr inbounds nuw i8, ptr %0, i64 8
  %4 = load ptr, ptr %3, align 8
  %.not = icmp eq ptr %4, null
  br i1 %.not, label %6, label %5

5:                                                ; preds = %1
  tail call void @hostlist_destroy(ptr noundef nonnull %4) #15
  br label %6

6:                                                ; preds = %5, %1
  call void @slurm_xfree(ptr noundef nonnull %2) #15
  call void @llvm.lifetime.end.p0(i64 8, ptr nonnull %2) #15
  ret void
}